target datalayout = "e-m:e-p270:32:32-p271:32:32-p272:64:64-i64:64-i128:128-f80:128-n8:16:32:64-S128"
target triple = "x86_64-pc-linux-gnu"

%struct.bio_st = type { ptr, ptr, ptr, ptr, ptr, i32, i32, i32, i32, i32, ptr, ptr, ptr, %struct.CRYPTO_REF_COUNT, i64, i64, %struct.crypto_ex_data_st }
%struct.CRYPTO_REF_COUNT = type { i32 }
%struct.crypto_ex_data_st = type { ptr, ptr }
%struct.bss_sock_st = type { %union.bio_addr_st, i32 }
%union.bio_addr_st = type { %struct.sockaddr_in6, [84 x i8] }
%struct.sockaddr_in6 = type { i16, i16, i32, %struct.in6_addr, i32 }
%struct.in6_addr = type { %union.anon }
%union.anon = type { [4 x i32] }
%struct.bio_poll_descriptor_st = type { i32, %union.anon.0 }
%union.anon.0 = type { ptr }

; Function Attrs: nounwind uwtable
define internal i64 @sock_ctrl(ptr noundef %0, i32 noundef %1, i64 noundef %2, ptr noundef %3) #0 {
  %5 = alloca ptr, align 8
  %6 = alloca i32, align 4
  %7 = alloca i64, align 8
  %8 = alloca ptr, align 8
  %9 = alloca i64, align 8
  %10 = alloca ptr, align 8
  %11 = alloca ptr, align 8
  %12 = alloca ptr, align 8
  %13 = alloca i32, align 4
  %14 = alloca ptr, align 8
  store ptr %0, ptr %5, align 8, !tbaa !7
  store i32 %1, ptr %6, align 4, !tbaa !3
  store i64 %2, ptr %7, align 8, !tbaa !21
  store ptr %3, ptr %8, align 8, !tbaa !22
  call void @llvm.lifetime.start.p0(i64 8, ptr %9) #6
  store i64 1, ptr %9, align 8, !tbaa !21
  call void @llvm.lifetime.start.p0(i64 8, ptr %10) #6
  call void @llvm.lifetime.start.p0(i64 8, ptr %11) #6
  %15 = load ptr, ptr %5, align 8, !tbaa !7
  %16 = getelementptr inbounds nuw %struct.bio_st, ptr %15, i32 0, i32 10
  %17 = load ptr, ptr %16, align 8, !tbaa !23
  store ptr %17, ptr %11, align 8, !tbaa !24
  %18 = load i32, ptr %6, align 4, !tbaa !3
  switch i32 %18, label %144 [
    i32 104, label %19
    i32 105, label %52
    i32 8, label %73
    i32 9, label %78
    i32 12, label %83
    i32 11, label %83
    i32 91, label %84
    i32 92, label %84
    i32 2, label %102
    i32 123, label %110
    i32 100, label %123
  ]

19:                                               ; preds = %4
  %20 = load ptr, ptr %5, align 8, !tbaa !7
  %21 = getelementptr inbounds nuw %struct.bio_st, ptr %20, i32 0, i32 6
  %22 = load i32, ptr %21, align 4, !tbaa !26
  %23 = icmp ne i32 %22, 0
  br i1 %23, label %24, label %37

24:                                               ; preds = %19
  %25 = load ptr, ptr %5, align 8, !tbaa !7
  %26 = getelementptr inbounds nuw %struct.bio_st, ptr %25, i32 0, i32 5
  %27 = load i32, ptr %26, align 8, !tbaa !27
  %28 = icmp ne i32 %27, 0
  br i1 %28, label %29, label %34

29:                                               ; preds = %24
  %30 = load ptr, ptr %5, align 8, !tbaa !7
  %31 = getelementptr inbounds nuw %struct.bio_st, ptr %30, i32 0, i32 9
  %32 = load i32, ptr %31, align 8, !tbaa !12
  %33 = call i32 @BIO_closesocket(i32 noundef %32)
  br label %34

34:                                               ; preds = %29, %24
  %35 = load ptr, ptr %5, align 8, !tbaa !7
  %36 = getelementptr inbounds nuw %struct.bio_st, ptr %35, i32 0, i32 7
  store i32 0, ptr %36, align 8, !tbaa !20
  br label %37

37:                                               ; preds = %34, %19
  %38 = load ptr, ptr %8, align 8, !tbaa !22
  %39 = load i32, ptr %38, align 4, !tbaa !3
  %40 = load ptr, ptr %5, align 8, !tbaa !7
  %41 = getelementptr inbounds nuw %struct.bio_st, ptr %40, i32 0, i32 9
  store i32 %39, ptr %41, align 8, !tbaa !12
  %42 = load i64, ptr %7, align 8, !tbaa !21
  %43 = trunc i64 %42 to i32
  %44 = load ptr, ptr %5, align 8, !tbaa !7
  %45 = getelementptr inbounds nuw %struct.bio_st, ptr %44, i32 0, i32 6
  store i32 %43, ptr %45, align 4, !tbaa !26
  %46 = load ptr, ptr %5, align 8, !tbaa !7
  %47 = getelementptr inbounds nuw %struct.bio_st, ptr %46, i32 0, i32 5
  store i32 1, ptr %47, align 8, !tbaa !27
  %48 = load ptr, ptr %11, align 8, !tbaa !24
  %49 = getelementptr inbounds nuw %struct.bss_sock_st, ptr %48, i32 0, i32 1
  store i32 0, ptr %49, align 4, !tbaa !28
  %50 = load ptr, ptr %11, align 8, !tbaa !24
  %51 = getelementptr inbounds nuw %struct.bss_sock_st, ptr %50, i32 0, i32 0
  call void @llvm.memset.p0.i64(ptr align 4 %51, i8 0, i64 112, i1 false)
  br label %145

52:                                               ; preds = %4
  %53 = load ptr, ptr %5, align 8, !tbaa !7
  %54 = getelementptr inbounds nuw %struct.bio_st, ptr %53, i32 0, i32 5
  %55 = load i32, ptr %54, align 8, !tbaa !27
  %56 = icmp ne i32 %55, 0
  br i1 %56, label %57, label %71

57:                                               ; preds = %52
  %58 = load ptr, ptr %8, align 8, !tbaa !22
  store ptr %58, ptr %10, align 8, !tbaa !30
  %59 = load ptr, ptr %10, align 8, !tbaa !30
  %60 = icmp ne ptr %59, null
  br i1 %60, label %61, label %66

61:                                               ; preds = %57
  %62 = load ptr, ptr %5, align 8, !tbaa !7
  %63 = getelementptr inbounds nuw %struct.bio_st, ptr %62, i32 0, i32 9
  %64 = load i32, ptr %63, align 8, !tbaa !12
  %65 = load ptr, ptr %10, align 8, !tbaa !30
  store i32 %64, ptr %65, align 4, !tbaa !3
  br label %66

66:                                               ; preds = %61, %57
  %67 = load ptr, ptr %5, align 8, !tbaa !7
  %68 = getelementptr inbounds nuw %struct.bio_st, ptr %67, i32 0, i32 9
  %69 = load i32, ptr %68, align 8, !tbaa !12
  %70 = sext i32 %69 to i64
  store i64 %70, ptr %9, align 8, !tbaa !21
  br label %72

71:                                               ; preds = %52
  store i64 -1, ptr %9, align 8, !tbaa !21
  br label %72

72:                                               ; preds = %71, %66
  br label %145

73:                                               ; preds = %4
  %74 = load ptr, ptr %5, align 8, !tbaa !7
  %75 = getelementptr inbounds nuw %struct.bio_st, ptr %74, i32 0, i32 6
  %76 = load i32, ptr %75, align 4, !tbaa !26
  %77 = sext i32 %76 to i64
  store i64 %77, ptr %9, align 8, !tbaa !21
  br label %145

78:                                               ; preds = %4
  %79 = load i64, ptr %7, align 8, !tbaa !21
  %80 = trunc i64 %79 to i32
  %81 = load ptr, ptr %5, align 8, !tbaa !7
  %82 = getelementptr inbounds nuw %struct.bio_st, ptr %81, i32 0, i32 6
  store i32 %80, ptr %82, align 4, !tbaa !26
  br label %145

83:                                               ; preds = %4, %4
  store i64 1, ptr %9, align 8, !tbaa !21
  br label %145

84:                                               ; preds = %4, %4
  call void @llvm.lifetime.start.p0(i64 8, ptr %12) #6
  %85 = load ptr, ptr %8, align 8, !tbaa !22
  store ptr %85, ptr %12, align 8, !tbaa !32
  %86 = load ptr, ptr %5, align 8, !tbaa !7
  %87 = getelementptr inbounds nuw %struct.bio_st, ptr %86, i32 0, i32 5
  %88 = load i32, ptr %87, align 8, !tbaa !27
  %89 = icmp ne i32 %88, 0
  br i1 %89, label %91, label %90

90:                                               ; preds = %84
  store i64 0, ptr %9, align 8, !tbaa !21
  store i32 2, ptr %13, align 4
  br label %99

91:                                               ; preds = %84
  %92 = load ptr, ptr %12, align 8, !tbaa !32
  %93 = getelementptr inbounds nuw %struct.bio_poll_descriptor_st, ptr %92, i32 0, i32 0
  store i32 1, ptr %93, align 8, !tbaa !34
  %94 = load ptr, ptr %5, align 8, !tbaa !7
  %95 = getelementptr inbounds nuw %struct.bio_st, ptr %94, i32 0, i32 9
  %96 = load i32, ptr %95, align 8, !tbaa !12
  %97 = load ptr, ptr %12, align 8, !tbaa !32
  %98 = getelementptr inbounds nuw %struct.bio_poll_descriptor_st, ptr %97, i32 0, i32 1
  store i32 %96, ptr %98, align 8, !tbaa !36
  store i32 0, ptr %13, align 4
  br label %99

99:                                               ; preds = %91, %90
  call void @llvm.lifetime.end.p0(i64 8, ptr %12) #6
  %100 = load i32, ptr %13, align 4
  switch i32 %100, label %147 [
    i32 0, label %101
    i32 2, label %145
  ]

101:                                              ; preds = %99
  br label %145

102:                                              ; preds = %4
  %103 = load ptr, ptr %5, align 8, !tbaa !7
  %104 = getelementptr inbounds nuw %struct.bio_st, ptr %103, i32 0, i32 7
  %105 = load i32, ptr %104, align 8, !tbaa !20
  %106 = and i32 %105, 2048
  %107 = icmp ne i32 %106, 0
  %108 = zext i1 %107 to i32
  %109 = sext i32 %108 to i64
  store i64 %109, ptr %9, align 8, !tbaa !21
  br label %145

110:                                              ; preds = %4
  %111 = load ptr, ptr %8, align 8, !tbaa !22
  %112 = icmp ne ptr %111, null
  br i1 %112, label %113, label %121

113:                                              ; preds = %110
  %114 = load i64, ptr %7, align 8, !tbaa !21
  %115 = icmp eq i64 %114, 2
  br i1 %115, label %116, label %121

116:                                              ; preds = %113
  call void @llvm.lifetime.start.p0(i64 8, ptr %14) #6
  %117 = load ptr, ptr %8, align 8, !tbaa !22
  store ptr %117, ptr %14, align 8, !tbaa !37
  %118 = load ptr, ptr %11, align 8, !tbaa !24
  %119 = getelementptr inbounds nuw %struct.bss_sock_st, ptr %118, i32 0, i32 0
  %120 = load ptr, ptr %14, align 8, !tbaa !37
  store ptr %119, ptr %120, align 8, !tbaa !10
  call void @llvm.lifetime.end.p0(i64 8, ptr %14) #6
  br label %122

121:                                              ; preds = %113, %110
  store i64 0, ptr %9, align 8, !tbaa !21
  br label %122

122:                                              ; preds = %121, %116
  br label %145

123:                                              ; preds = %4
  %124 = load ptr, ptr %8, align 8, !tbaa !22
  %125 = icmp ne ptr %124, null
  br i1 %125, label %126, label %142

126:                                              ; preds = %123
  %127 = load i64, ptr %7, align 8, !tbaa !21
  %128 = icmp eq i64 %127, 2
  br i1 %128, label %129, label %142

129:                                              ; preds = %126
  %130 = load ptr, ptr %11, align 8, !tbaa !24
  %131 = getelementptr inbounds nuw %struct.bss_sock_st, ptr %130, i32 0, i32 0
  %132 = load ptr, ptr %8, align 8, !tbaa !22
  %133 = call ptr @BIO_ADDR_sockaddr(ptr noundef %132)
  %134 = call i32 @BIO_ADDR_make(ptr noundef %131, ptr noundef %133)
  %135 = sext i32 %134 to i64
  store i64 %135, ptr %9, align 8, !tbaa !21
  %136 = load i64, ptr %9, align 8, !tbaa !21
  %137 = icmp ne i64 %136, 0
  br i1 %137, label %138, label %141

138:                                              ; preds = %129
  %139 = load ptr, ptr %11, align 8, !tbaa !24
  %140 = getelementptr inbounds nuw %struct.bss_sock_st, ptr %139, i32 0, i32 1
  store i32 1, ptr %140, align 4, !tbaa !28
  br label %141

141:                                              ; preds = %138, %129
  br label %143

142:                                              ; preds = %126, %123
  store i64 0, ptr %9, align 8, !tbaa !21
  br label %143

143:                                              ; preds = %142, %141
  br label %145

144:                                              ; preds = %4
  store i64 0, ptr %9, align 8, !tbaa !21
  br label %145

145:                                              ; preds = %144, %143, %122, %102, %101, %99, %83, %78, %73, %72, %37
  %146 = load i64, ptr %9, align 8, !tbaa !21
  store i32 1, ptr %13, align 4
  call void @llvm.lifetime.end.p0(i64 8, ptr %11) #6
  call void @llvm.lifetime.end.p0(i64 8, ptr %10) #6
  call void @llvm.lifetime.end.p0(i64 8, ptr %9) #6
  ret i64 %146

147:                                              ; preds = %99
  unreachable
}