; Function Attrs: nounwind uwtable
define internal range(i64 -2147483648, 2147483648) i64 @sock_ctrl(ptr noundef captures(none) %0, i32 noundef %1, i64 noundef %2, ptr noundef %3) #1 {
  %5 = getelementptr inbounds nuw i8, ptr %0, i64 64
  %6 = load ptr, ptr %5, align 8, !tbaa !19
  switch i32 %1, label %62 [
    i32 104, label %7
    i32 105, label %24
    i32 8, label %30
    i32 9, label %34
    i32 12, label %63
    i32 11, label %63
    i32 91, label %37
    i32 92, label %37
    i32 2, label %44
    i32 123, label %49
    i32 100, label %53
  ]

7:                                                ; preds = %4
  %8 = getelementptr inbounds nuw i8, ptr %0, i64 44
  %9 = load i32, ptr %8, align 4, !tbaa !20
  %.not49 = icmp eq i32 %9, 0
  br i1 %.not49, label %19, label %10

10:                                               ; preds = %7
  %11 = getelementptr inbounds nuw i8, ptr %0, i64 40
  %12 = load i32, ptr %11, align 8, !tbaa !21
  %.not50 = icmp eq i32 %12, 0
  br i1 %.not50, label %17, label %13

13:                                               ; preds = %10
  %14 = getelementptr inbounds nuw i8, ptr %0, i64 56
  %15 = load i32, ptr %14, align 8, !tbaa !7
  %16 = tail call i32 @BIO_closesocket(i32 noundef %15) #8
  br label %17

17:                                               ; preds = %13, %10
  %18 = getelementptr inbounds nuw i8, ptr %0, i64 48
  store i32 0, ptr %18, align 8, !tbaa !18
  br label %19

19:                                               ; preds = %17, %7
  %20 = load i32, ptr %3, align 4, !tbaa !3
  %21 = getelementptr inbounds nuw i8, ptr %0, i64 56
  store i32 %20, ptr %21, align 8, !tbaa !7
  %22 = trunc i64 %2 to i32
  store i32 %22, ptr %8, align 4, !tbaa !20
  %23 = getelementptr inbounds nuw i8, ptr %0, i64 40
  store i32 1, ptr %23, align 8, !tbaa !21
  tail call void @llvm.memset.p0.i64(ptr noundef nonnull align 4 dereferenceable(116) %6, i8 0, i64 116, i1 false)
  br label %63

24:                                               ; preds = %4
  %25 = getelementptr inbounds nuw i8, ptr %0, i64 40
  %26 = load i32, ptr %25, align 8, !tbaa !21
  %.not47 = icmp eq i32 %26, 0
  br i1 %.not47, label %63, label %27

27:                                               ; preds = %24
  %.not48 = icmp eq ptr %3, null
  %.phi.trans.insert = getelementptr inbounds nuw i8, ptr %0, i64 56
  %.pre = load i32, ptr %.phi.trans.insert, align 8, !tbaa !7
  br i1 %.not48, label %._crit_edge, label %28

28:                                               ; preds = %27
  store i32 %.pre, ptr %3, align 4, !tbaa !3
  br label %._crit_edge

._crit_edge:                                      ; preds = %27, %28
  %29 = sext i32 %.pre to i64
  br label %63

30:                                               ; preds = %4
  %31 = getelementptr inbounds nuw i8, ptr %0, i64 44
  %32 = load i32, ptr %31, align 4, !tbaa !20
  %33 = sext i32 %32 to i64
  br label %63

34:                                               ; preds = %4
  %35 = trunc i64 %2 to i32
  %36 = getelementptr inbounds nuw i8, ptr %0, i64 44
  store i32 %35, ptr %36, align 4, !tbaa !20
  br label %63

37:                                               ; preds = %4, %4
  %38 = getelementptr inbounds nuw i8, ptr %0, i64 40
  %39 = load i32, ptr %38, align 8, !tbaa !21
  %.not46 = icmp eq i32 %39, 0
  br i1 %.not46, label %63, label %40

40:                                               ; preds = %37
  store i32 1, ptr %3, align 8, !tbaa !22
  %41 = getelementptr inbounds nuw i8, ptr %0, i64 56
  %42 = load i32, ptr %41, align 8, !tbaa !7
  %43 = getelementptr inbounds nuw i8, ptr %3, i64 8
  store i32 %42, ptr %43, align 8, !tbaa !24
  br label %63

44:                                               ; preds = %4
  %45 = getelementptr inbounds nuw i8, ptr %0, i64 48
  %46 = load i32, ptr %45, align 8, !tbaa !18
  %47 = lshr i32 %46, 11
  %.lobit = and i32 %47, 1
  %48 = zext nneg i32 %.lobit to i64
  br label %63

49:                                               ; preds = %4
  %50 = icmp ne ptr %3, null
  %51 = icmp eq i64 %2, 2
  %or.cond = and i1 %51, %50
  br i1 %or.cond, label %52, label %63

52:                                               ; preds = %49
  store ptr %6, ptr %3, align 8, !tbaa !25
  br label %63

53:                                               ; preds = %4
  %54 = icmp ne ptr %3, null
  %55 = icmp eq i64 %2, 2
  %or.cond3 = and i1 %55, %54
  br i1 %or.cond3, label %56, label %63

56:                                               ; preds = %53
  %57 = tail call ptr @BIO_ADDR_sockaddr(ptr noundef nonnull %3) #8
  %58 = tail call i32 @BIO_ADDR_make(ptr noundef %6, ptr noundef %57) #8
  %.not = icmp eq i32 %58, 0
  br i1 %.not, label %63, label %59

59:                                               ; preds = %56
  %60 = sext i32 %58 to i64
  %61 = getelementptr inbounds nuw i8, ptr %6, i64 112
  store i32 1, ptr %61, align 4, !tbaa !26
  br label %63

62:                                               ; preds = %4
  br label %63

63:                                               ; preds = %53, %49, %40, %37, %4, %4, %24, %59, %56, %52, %._crit_edge, %62, %44, %34, %30, %19
  %.0 = phi i64 [ 0, %62 ], [ %60, %59 ], [ 0, %56 ], [ 1, %52 ], [ %48, %44 ], [ 1, %34 ], [ %33, %30 ], [ %29, %._crit_edge ], [ 1, %19 ], [ -1, %24 ], [ 1, %4 ], [ 1, %4 ], [ 1, %40 ], [ 0, %37 ], [ 0, %49 ], [ 0, %53 ]
  ret i64 %.0
}